target datalayout = "e-m:e-p270:32:32-p271:32:32-p272:64:64-i64:64-i128:128-f80:128-n8:16:32:64-S128"
target triple = "x86_64-pc-linux-gnu"

%struct.filter_info_t = type { i32, i32, [20 x i32], i64 }
%struct.chunk_info_t = type { [32 x i64], i32 }
%struct.pack_opt_t = type { ptr, i32, i32, [6 x %struct.filter_info_t], i32, %struct.chunk_info_t, i32, i32, i8, i8, i64, i32, i8, i32, i32, i64, i64, i32, i32, [8 x i32], ptr, i64, i64, i64, i64, i32, i32, i64, i64 }

; Function Attrs: nounwind uwtable
define dso_local i32 @h5repack_init(ptr noundef %0, i32 noundef %1, i1 noundef zeroext %2) #0 {
  %4 = alloca ptr, align 8
  %5 = alloca i32, align 4
  %6 = alloca i8, align 1
  %7 = alloca i32, align 4
  %8 = alloca i32, align 4
  store ptr %0, ptr %4, align 8
  store i32 %1, ptr %5, align 4
  %9 = zext i1 %2 to i8
  store i8 %9, ptr %6, align 1
  %10 = load ptr, ptr %4, align 8
  call void @llvm.memset.p0.i64(ptr align 8 %10, i8 0, i64 1024, i1 false)
  %11 = load ptr, ptr %4, align 8
  %12 = getelementptr inbounds %struct.pack_opt_t, ptr %11, i32 0, i32 10
  store i64 0, ptr %12, align 8
  %13 = load i32, ptr %5, align 4
  %14 = load ptr, ptr %4, align 8
  %15 = getelementptr inbounds %struct.pack_opt_t, ptr %14, i32 0, i32 7
  store i32 %13, ptr %15, align 4
  %16 = load i8, ptr %6, align 1
  %17 = trunc i8 %16 to i1
  %18 = load ptr, ptr %4, align 8
  %19 = getelementptr inbounds %struct.pack_opt_t, ptr %18, i32 0, i32 12
  %20 = zext i1 %17 to i8
  store i8 %20, ptr %19, align 4
  %21 = load ptr, ptr %4, align 8
  %22 = getelementptr inbounds %struct.pack_opt_t, ptr %21, i32 0, i32 6
  store i32 -1, ptr %22, align 8
  %23 = load ptr, ptr %4, align 8
  %24 = getelementptr inbounds %struct.pack_opt_t, ptr %23, i32 0, i32 13
  store i32 0, ptr %24, align 8
  %25 = load ptr, ptr %4, align 8
  %26 = getelementptr inbounds %struct.pack_opt_t, ptr %25, i32 0, i32 14
  store i32 5, ptr %26, align 4
  %27 = load ptr, ptr %4, align 8
  %28 = getelementptr inbounds %struct.pack_opt_t, ptr %27, i32 0, i32 15
  store i64 0, ptr %28, align 8
  %29 = load ptr, ptr %4, align 8
  %30 = getelementptr inbounds %struct.pack_opt_t, ptr %29, i32 0, i32 16
  store i64 0, ptr %30, align 8
  store i32 0, ptr %8, align 4
  br label %31

31:                                               ; preds = %64, %3
  %32 = load i32, ptr %8, align 4
  %33 = icmp slt i32 %32, 6
  br i1 %33, label %34, label %67

34:                                               ; preds = %31
  %35 = load ptr, ptr %4, align 8
  %36 = getelementptr inbounds %struct.pack_opt_t, ptr %35, i32 0, i32 3
  %37 = load i32, ptr %8, align 4
  %38 = sext i32 %37 to i64
  %39 = getelementptr inbounds [6 x %struct.filter_info_t], ptr %36, i64 0, i64 %38
  %40 = getelementptr inbounds %struct.filter_info_t, ptr %39, i32 0, i32 0
  store i32 -1, ptr %40, align 8
  %41 = load ptr, ptr %4, align 8
  %42 = getelementptr inbounds %struct.pack_opt_t, ptr %41, i32 0, i32 3
  %43 = load i32, ptr %8, align 4
  %44 = sext i32 %43 to i64
  %45 = getelementptr inbounds [6 x %struct.filter_info_t], ptr %42, i64 0, i64 %44
  %46 = getelementptr inbounds %struct.filter_info_t, ptr %45, i32 0, i32 3
  store i64 0, ptr %46, align 8
  store i32 0, ptr %7, align 4
  br label %47

47:                                               ; preds = %60, %34
  %48 = load i32, ptr %7, align 4
  %49 = icmp slt i32 %48, 20
  br i1 %49, label %50, label %63

50:                                               ; preds = %47
  %51 = load ptr, ptr %4, align 8
  %52 = getelementptr inbounds %struct.pack_opt_t, ptr %51, i32 0, i32 3
  %53 = load i32, ptr %8, align 4
  %54 = sext i32 %53 to i64
  %55 = getelementptr inbounds [6 x %struct.filter_info_t], ptr %52, i64 0, i64 %54
  %56 = getelementptr inbounds %struct.filter_info_t, ptr %55, i32 0, i32 2
  %57 = load i32, ptr %7, align 4
  %58 = sext i32 %57 to i64
  %59 = getelementptr inbounds [20 x i32], ptr %56, i64 0, i64 %58
  store i32 0, ptr %59, align 4
  br label %60

60:                                               ; preds = %50
  %61 = load i32, ptr %7, align 4
  %62 = add nsw i32 %61, 1
  store i32 %62, ptr %7, align 4
  br label %47

63:                                               ; preds = %47
  br label %64

64:                                               ; preds = %63
  %65 = load i32, ptr %8, align 4
  %66 = add nsw i32 %65, 1
  store i32 %66, ptr %8, align 4
  br label %31

67:                                               ; preds = %31
  %68 = load ptr, ptr %4, align 8
  %69 = getelementptr inbounds %struct.pack_opt_t, ptr %68, i32 0, i32 0
  %70 = call i32 @options_table_init(ptr noundef %69)
  ret i32 %70
}