; Function Attrs: nounwind uwtable
define dso_local i32 @h5repack_init(ptr noundef initializes((0, 1024)) %0, i32 noundef %1, i1 noundef zeroext %2) local_unnamed_addr #0 {
  %4 = zext i1 %2 to i8
  %5 = getelementptr inbounds nuw i8, ptr %0, i64 868
  tail call void @llvm.memset.p0.i64(ptr noundef nonnull align 8 dereferenceable(1024) %0, i8 0, i64 1024, i1 false)
  store i32 %1, ptr %5, align 4
  %6 = getelementptr inbounds nuw i8, ptr %0, i64 892
  store i8 %4, ptr %6, align 4
  %7 = getelementptr inbounds nuw i8, ptr %0, i64 864
  store i32 -1, ptr %7, align 8
  %8 = getelementptr inbounds nuw i8, ptr %0, i64 900
  store i32 5, ptr %8, align 4
  %9 = getelementptr inbounds nuw i8, ptr %0, i64 904
  %10 = getelementptr inbounds nuw i8, ptr %0, i64 16
  tail call void @llvm.memset.p0.i64(ptr noundef nonnull align 8 dereferenceable(16) %9, i8 0, i64 16, i1 false)
  br label %11

11:                                               ; preds = %3, %11
  %indvar = phi i64 [ 0, %3 ], [ %indvar.next, %11 ]
  %12 = mul nuw nsw i64 %indvar, 96
  %13 = or disjoint i64 %12, 24
  %scevgep = getelementptr nuw i8, ptr %0, i64 %13
  %14 = getelementptr inbounds nuw [6 x %struct.filter_info_t], ptr %10, i64 0, i64 %indvar
  store i32 -1, ptr %14, align 8
  %15 = getelementptr inbounds nuw i8, ptr %14, i64 88
  store i64 0, ptr %15, align 8
  tail call void @llvm.memset.p0.i64(ptr noundef nonnull align 4 dereferenceable(80) %scevgep, i8 0, i64 80, i1 false)
  %indvar.next = add nuw nsw i64 %indvar, 1
  %exitcond.not = icmp eq i64 %indvar.next, 6
  br i1 %exitcond.not, label %16, label %11

16:                                               ; preds = %11
  %17 = tail call i32 @options_table_init(ptr noundef nonnull %0) #10
  ret i32 %17
}